; Function Attrs: null_pointer_is_valid sspstrong uwtable
define void @prefs_register_bool_preference(ptr noundef captures(address_is_null) %0, ptr noundef %1, ptr noundef %2, ptr noundef %3, ptr noundef %4) local_unnamed_addr #1 {
  %6 = tail call fastcc ptr @register_preference(ptr noundef %0, ptr noundef %1, ptr noundef %2, ptr noundef %3, i32 noundef 2)
  %7 = getelementptr inbounds nuw i8, ptr %6, i64 40
  store ptr %4, ptr %7, align 8
  %8 = load i8, ptr %4, align 1, !range !6, !noundef !7
  %9 = getelementptr inbounds nuw i8, ptr %6, i64 56
  store i8 %8, ptr %9, align 8
  ret void
}